; Function Attrs: mustprogress uwtable
define hidden void @_ZN19maximize_ac_sharingC2ER11ast_manager(ptr noundef nonnull align 8 dereferenceable(112) %this, ptr noundef nonnull align 8 dereferenceable(976) %m) unnamed_addr #3 align 2 personality ptr @__gxx_personality_v0 {
entry:
  store ptr getelementptr inbounds ({ [6 x ptr] }, ptr @_ZTV19maximize_ac_sharing, i64 0, i32 0, i64 2), ptr %this, align 8
  %m2 = getelementptr inbounds i8, ptr %this, i64 8
  store ptr %m, ptr %m2, align 8
  %m_init = getelementptr inbounds i8, ptr %this, i64 16
  store i8 0, ptr %m_init, align 8
  %m_region = getelementptr inbounds i8, ptr %this, i64 24
  tail call void @_ZN6regionC1Ev(ptr noundef nonnull align 8 dereferenceable(40) %m_region)
  %call.i.i.i.i1 = invoke noalias noundef ptr @_ZN6memory8allocateEm(i64 noundef 128)
          to label %invoke.cont unwind label %lpad

invoke.cont:                                      ; preds = %entry
  %m_cache = getelementptr inbounds i8, ptr %this, i64 64
  tail call void @llvm.memset.p0.i64(ptr noundef nonnull align 8 dereferenceable(128) %call.i.i.i.i1, i8 0, i64 128, i1 false)
  store ptr %call.i.i.i.i1, ptr %m_cache, align 8
  %m_capacity.i.i = getelementptr inbounds i8, ptr %this, i64 72
  store i32 8, ptr %m_capacity.i.i, align 8
  %m_size.i.i = getelementptr inbounds i8, ptr %this, i64 76
  store i32 0, ptr %m_size.i.i, align 4
  %m_num_deleted.i.i = getelementptr inbounds i8, ptr %this, i64 80
  store i32 0, ptr %m_num_deleted.i.i, align 8
  %m_entries = getelementptr inbounds i8, ptr %this, i64 88
  tail call void @llvm.memset.p0.i64(ptr noundef nonnull align 8 dereferenceable(24) %m_entries, i8 0, i64 24, i1 false)
  ret void

lpad:                                             ; preds = %entry
  %0 = landingpad { ptr, i32 }
          cleanup
  tail call void @_ZN6regionD1Ev(ptr noundef nonnull align 8 dereferenceable(40) %m_region) #18
  resume { ptr, i32 } %0
}